; Function Attrs: mustprogress nofree norecurse nosync nounwind willreturn memory(argmem: read) uwtable
define dso_local noundef float @_ZNK14b3AngularLimit8getErrorEv(ptr nocapture noundef nonnull readonly align 4 dereferenceable(29) %this) local_unnamed_addr #4 align 2 {
entry:
  %m_correction = getelementptr inbounds i8, ptr %this, i64 20
  %0 = load float, ptr %m_correction, align 4
  %m_sign = getelementptr inbounds i8, ptr %this, i64 24
  %1 = load float, ptr %m_sign, align 4
  %mul = fmul float %0, %1
  ret float %mul
}